(lp0
(i__main__
mlSamplers
p1
(dp2
S'data'
p3
S'Google'
p4
sS'numTags'
p5
(lp6
I52
aI49
aI69
aI69
aI69
aI69
aI69
aI69
aI69
aI69
aI69
aI69
aI69
aI69
aI69
aI110
asS'label'
p7
I1
sba(i__main__
mlSamplers
p8
(dp9
g3
S'(function(){window.google={kEI:\'YOrLWcm9H9T2jwO0oqKgDA\',kEXPI:\'755548,1353383,1354276,1354401,1354626,1354749,1354875,1355203,1355205,1355212,1355217,1355324,1355597,1355692,3700256,3700476,4029815,4031109,4040138,4043492,4045841,4048347,4063220,4072773,4076999,4078430,4081039,4081165,4095910,4097153,4097922,4097929,4098545,4098733,4098740,4098752,4102090,4102238,4102827,4103475,4103845,4103861,4104258,4104414,4106085,4109316,4109489,4110656,4111736,4113216,4114597,4115219,4115697,4116724,4116731,4117328,4117980,4118103,4118226,4118798,4119032,4119034,4119036,4119121,4119272,4119740,4119811,4119812,4119820,4120328,4120415,4120660,4121035,4121175,4121349,4121849,4123594,4123645,4124173,4124410,4124497,4124850,4124892,4125000,4125477,4125837,4125963,4126204,4126272,4126276,4126650,4126779,4127232,4127473,4127744,4127775,4127890,4127950,4128586,4129483,4129520,4129555,4130416,4130417,4130424,4130572,4130773,4130817,4130819,4131072,4131247,4131252,4131836,4131941,4132309,4132618,4132702,4132967,4133113,4133480,10200083,10201957,19003440,19003656,19003740,19003804,19003808\',authuser:0,kscs:\'c9c918f0_41\',u:\'c9c918f0\'};google.kHL=\'en\';})();(function(){google.lc=[];google.li=0;google.getEI=function(a){for(var b;a&&(!a.getAttribute||!(b=a.getAttribute("eid")));)a=a.parentNode;return b||google.kEI};google.getLEI=function(a){for(var b=null;a&&(!a.getAttribute||!(b=a.getAttribute("leid")));)a=a.parentNode;return b};google.https=function(){return"https:"==window.location.protocol};google.ml=function(){return null};google.wl=function(a,b){try{google.ml(Error(a),!1,b)}catch(c){}};google.time=function(){return(new Date).getTime()};google.log=function(a,b,c,d,g){if(a=google.logUrl(a,b,c,d,g)){b=new Image;var e=google.lc,f=google.li;e[f]=b;b.onerror=b.onload=b.onabort=function(){delete e[f]};google.vel&&google.vel.lu&&google.vel.lu(a);b.src=a;google.li=f+1}};google.logUrl=function(a,b,c,d,g){var e="",f=google.ls||"";c||-1!=b.search("&ei=")||(e="&ei="+google.getEI(d),-1==b.search("&lei=")&&(d=google.getLEI(d))&&(e+="&lei="+d));d="";!c&&google.cshid&&-1==b.search("&cshid=")&&(d="&cshid="+google.cshid);a=c||"/"+(g||"gen_204")+"?atyp=i&ct="+a+"&cad="+b+e+f+"&zx="+google.time()+d;/^http:/i.test(a)&&google.https()&&(google.ml(Error("a"),!1,{src:a,glmm:1}),a="");return a};google.y={};google.x=function(a,b){if(a)var c=a.id;else{do c=Math.random();while(google.y[c])}google.y[c]=[a,b];return!1};google.lq=[];google.load=function(a,b,c){google.lq.push([[a],b,c])};google.loadAll=function(a,b){google.lq.push([a,b])};}).call(this);google.f={};var a=window.location,b=a.href.indexOf("#");if(0<=b){var c=a.href.substring(b+1);/(^|&)q=/.test(c)&&-1==c.indexOf("#")&&a.replace("/search?"+c.replace(/(^|&)fp=[^&]*/g,"")+"&cad=h")};'
p10
sg5
(lp11
I52
aI49
aI69
aI69
aI69
aI69
aI69
aI69
aI69
aI69
aI69
aI69
aI69
aI69
aI69
aI90
asg7
I0
sba(i__main__
mlSamplers
p12
(dp13
g3
S'#gbar,#guser{font-size:13px;padding-top:1px !important;}#gbar{height:22px}#guser{padding-bottom:7px !important;text-align:right}.gbh,.gbd{border-top:1px solid #c9d7f1;font-size:1px}.gbh{height:0;position:absolute;top:24px;width:100%}@media all{.gb1{height:22px;margin-right:.5em;vertical-align:top}#gbar{float:left}}a.gb1,a.gb4{text-decoration:underline !important}a.gb1,a.gb4{color:#00c !important}.gbi .gb4{color:#dd8e27 !important}.gbf .gb4{color:#900 !important}\n'
p14
sg5
(lp15
I52
aI49
aI69
aI69
aI69
aI69
aI69
aI69
aI69
aI69
aI69
aI69
aI69
aI69
aI69
aI98
asg7
I0
sba(i__main__
mlSamplers
p16
(dp17
g3
S'body,td,a,p,.h{font-family:arial,sans-serif}body{margin:0;overflow-y:scroll}#gog{padding:3px 8px 0}td{line-height:.8em}.gac_m td{line-height:17px}form{margin-bottom:20px}.h{color:#36c}.q{color:#00c}.ts td{padding:0}.ts{border-collapse:collapse}em{font-weight:bold;font-style:normal}.lst{height:25px;width:496px}.gsfi,.lst{font:18px arial,sans-serif}.gsfs{font:17px arial,sans-serif}.ds{display:inline-box;display:inline-block;margin:3px 0 4px;margin-left:4px}input{font-family:inherit}a.gb1,a.gb2,a.gb3,a.gb4{color:#11c !important}body{background:#fff;color:black}a{color:#11c;text-decoration:none}a:hover,a:active{text-decoration:underline}.fl a{color:#36c}a:visited{color:#551a8b}a.gb1,a.gb4{text-decoration:underline}a.gb3:hover{text-decoration:none}#ghead a.gb2:hover{color:#fff !important}.sblc{padding-top:5px}.sblc a{display:block;margin:2px 0;margin-left:13px;font-size:11px}.lsbb{background:#eee;border:solid 1px;border-color:#ccc #999 #999 #ccc;height:30px}.lsbb{display:block}.ftl,#fll a{display:inline-block;margin:0 12px}.lsb{background:url(/images/nav_logo229.png) 0 -261px repeat-x;border:none;color:#000;cursor:pointer;height:30px;margin:0;outline:0;font:15px arial,sans-serif;vertical-align:top}.lsb:active{background:#ccc}.lst:focus{outline:none}'
p18
sg5
(lp19
I52
aI49
aI69
aI69
aI69
aI69
aI69
aI69
aI69
aI69
aI69
aI69
aI69
aI69
aI69
aI98
asg7
I0
sba(i__main__
mlSamplers
p20
(dp21
g3
S"(function(){var src='/images/nav_logo229.png';var iesg=false;document.body.onload = function(){window.n && window.n();if (document.images){new Image().src=src;}\nif (!iesg){document.f&&document.f.q.focus();document.gbqf&&document.gbqf.q.focus();}\n}\n})();"
p22
sg5
(lp23
I52
aI49
aI69
aI69
aI69
aI69
aI69
aI69
aI69
aI69
aI69
aI69
aI69
aI69
aI69
aI18
aI90
asg7
I0
sba(i__main__
mlSamplers
p24
(dp25
g3
S' '
p26
sg5
(lp27
I52
aI49
aI69
aI69
aI69
aI69
aI69
aI69
aI69
aI69
aI69
aI69
aI69
aI69
aI69
aI18
aI35
asg7
I0
sba(i__main__
mlSamplers
p28
(dp29
g3
S'Search'
p30
sg5
(lp31
I52
aI49
aI69
aI69
aI69
aI69
aI69
aI69
aI69
aI69
aI69
aI69
aI69
aI69
aI69
aI18
aI35
aI35
aI119
aI11
asg7
I5
sba(i__main__
mlSamplers
p32
(dp33
g3
g26
sg5
(lp34
I52
aI49
aI69
aI69
aI69
aI69
aI69
aI69
aI69
aI69
aI69
aI69
aI69
aI69
aI69
aI18
aI35
aI35
aI119
asg7
I0
sba(i__main__
mlSamplers
p35
(dp36
g3
S'Images'
p37
sg5
(lp38
I52
aI49
aI69
aI69
aI69
aI69
aI69
aI69
aI69
aI69
aI69
aI69
aI69
aI69
aI69
aI18
aI35
aI35
aI119
aI2
asg7
I7
sba(i__main__
mlSamplers
p39
(dp40
g3
g26
sg5
(lp41
I52
aI49
aI69
aI69
aI69
aI69
aI69
aI69
aI69
aI69
aI69
aI69
aI69
aI69
aI69
aI18
aI35
aI35
aI119
asg7
I0
sba(i__main__
mlSamplers
p42
(dp43
g3
S'Maps'
p44
sg5
(lp45
I52
aI49
aI69
aI69
aI69
aI69
aI69
aI69
aI69
aI69
aI69
aI69
aI69
aI69
aI69
aI18
aI35
aI35
aI119
aI2
asg7
I7
sba(i__main__
mlSamplers
p46
(dp47
g3
g26
sg5
(lp48
I52
aI49
aI69
aI69
aI69
aI69
aI69
aI69
aI69
aI69
aI69
aI69
aI69
aI69
aI69
aI18
aI35
aI35
aI119
asg7
I0
sba(i__main__
mlSamplers
p49
(dp50
g3
S'Play'
p51
sg5
(lp52
I52
aI49
aI69
aI69
aI69
aI69
aI69
aI69
aI69
aI69
aI69
aI69
aI69
aI69
aI69
aI18
aI35
aI35
aI119
aI2
asg7
I7
sba(i__main__
mlSamplers
p53
(dp54
g3
g26
sg5
(lp55
I52
aI49
aI69
aI69
aI69
aI69
aI69
aI69
aI69
aI69
aI69
aI69
aI69
aI69
aI69
aI18
aI35
aI35
aI119
asg7
I0
sba(i__main__
mlSamplers
p56
(dp57
g3
S'YouTube'
p58
sg5
(lp59
I52
aI49
aI69
aI69
aI69
aI69
aI69
aI69
aI69
aI69
aI69
aI69
aI69
aI69
aI69
aI18
aI35
aI35
aI119
aI2
asg7
I7
sba(i__main__
mlSamplers
p60
(dp61
g3
g26
sg5
(lp62
I52
aI49
aI69
aI69
aI69
aI69
aI69
aI69
aI69
aI69
aI69
aI69
aI69
aI69
aI69
aI18
aI35
aI35
aI119
asg7
I0
sba(i__main__
mlSamplers
p63
(dp64
g3
S'News'
p65
sg5
(lp66
I52
aI49
aI69
aI69
aI69
aI69
aI69
aI69
aI69
aI69
aI69
aI69
aI69
aI69
aI69
aI18
aI35
aI35
aI119
aI2
asg7
I7
sba(i__main__
mlSamplers
p67
(dp68
g3
g26
sg5
(lp69
I52
aI49
aI69
aI69
aI69
aI69
aI69
aI69
aI69
aI69
aI69
aI69
aI69
aI69
aI69
aI18
aI35
aI35
aI119
asg7
I0
sba(i__main__
mlSamplers
p70
(dp71
g3
S'Gmail'
p72
sg5
(lp73
I52
aI49
aI69
aI69
aI69
aI69
aI69
aI69
aI69
aI69
aI69
aI69
aI69
aI69
aI69
aI18
aI35
aI35
aI119
aI2
asg7
I7
sba(i__main__
mlSamplers
p74
(dp75
g3
g26
sg5
(lp76
I52
aI49
aI69
aI69
aI69
aI69
aI69
aI69
aI69
aI69
aI69
aI69
aI69
aI69
aI69
aI18
aI35
aI35
aI119
asg7
I0
sba(i__main__
mlSamplers
p77
(dp78
g3
S'Drive'
p79
sg5
(lp80
I52
aI49
aI69
aI69
aI69
aI69
aI69
aI69
aI69
aI69
aI69
aI69
aI69
aI69
aI69
aI18
aI35
aI35
aI119
aI2
asg7
I7
sba(i__main__
mlSamplers
p81
(dp82
g3
g26
sg5
(lp83
I52
aI49
aI69
aI69
aI69
aI69
aI69
aI69
aI69
aI69
aI69
aI69
aI69
aI69
aI69
aI18
aI35
aI35
aI119
asg7
I0
sba(i__main__
mlSamplers
p84
(dp85
g3
S'More'
p86
sg5
(lp87
I52
aI49
aI69
aI69
aI69
aI69
aI69
aI69
aI69
aI69
aI69
aI69
aI69
aI69
aI69
aI18
aI35
aI35
aI119
aI2
aI114
asg7
I10
sba(i__main__
mlSamplers
p88
(dp89
g3
g26
sg5
(lp90
I52
aI49
aI69
aI69
aI69
aI69
aI69
aI69
aI69
aI69
aI69
aI69
aI69
aI69
aI69
aI18
aI35
aI35
aI119
aI2
asg7
I0
sba(i__main__
mlSamplers
p91
(dp92
g3
S'Web History'
p93
sg5
(lp94
I52
aI49
aI69
aI69
aI69
aI69
aI69
aI69
aI69
aI69
aI69
aI69
aI69
aI69
aI69
aI18
aI35
aI35
aI119
aI2
asg7
I10
sba(i__main__
mlSamplers
p95
(dp96
g3
S' | '
p97
sg5
(lp98
I52
aI49
aI69
aI69
aI69
aI69
aI69
aI69
aI69
aI69
aI69
aI69
aI69
aI69
aI69
aI18
aI35
aI35
aI119
asg7
I0
sba(i__main__
mlSamplers
p99
(dp100
g3
S'Settings'
p101
sg5
(lp102
I52
aI49
aI69
aI69
aI69
aI69
aI69
aI69
aI69
aI69
aI69
aI69
aI69
aI69
aI69
aI18
aI35
aI35
aI119
aI2
asg7
I8
sba(i__main__
mlSamplers
p103
(dp104
g3
S' | '
p105
sg5
(lp106
I52
aI49
aI69
aI69
aI69
aI69
aI69
aI69
aI69
aI69
aI69
aI69
aI69
aI69
aI69
aI18
aI35
aI35
aI119
asg7
I0
sba(i__main__
mlSamplers
p107
(dp108
g3
S'Sign in'
p109
sg5
(lp110
I52
aI49
aI69
aI69
aI69
aI69
aI69
aI69
aI69
aI69
aI69
aI69
aI69
aI69
aI69
aI18
aI35
aI35
aI119
aI2
asg7
I10
sba(i__main__
mlSamplers
p111
(dp112
g3
g26
sg5
(lp113
I52
aI49
aI69
aI69
aI69
aI69
aI69
aI69
aI69
aI69
aI69
aI69
aI69
aI69
aI69
aI18
aI35
asg7
I0
sba(i__main__
mlSamplers
p114
(dp115
g3
S'Advanced search'
p116
sg5
(lp117
I52
aI49
aI69
aI69
aI69
aI69
aI69
aI69
aI69
aI69
aI69
aI69
aI69
aI69
aI69
aI18
aI23
aI19
aI35
aI2
aI55
aI45
aI102
aI111
aI104
aI56
aI56
aI56
aI56
aI56
aI35
aI19
aI95
aI104
aI2
asg7
I10
sba(i__main__
mlSamplers
p118
(dp119
g3
S'Language tools'
p120
sg5
(lp121
I52
aI49
aI69
aI69
aI69
aI69
aI69
aI69
aI69
aI69
aI69
aI69
aI69
aI69
aI69
aI18
aI23
aI19
aI35
aI2
aI55
aI45
aI102
aI111
aI104
aI56
aI56
aI56
aI56
aI56
aI35
aI19
aI95
aI104
aI2
asg7
I10
sba(i__main__
mlSamplers
p122
(dp123
g3
S'Advertising\xa0Programs'
p124
sg5
(lp125
I52
aI49
aI69
aI69
aI69
aI69
aI69
aI69
aI69
aI69
aI69
aI69
aI69
aI69
aI69
aI18
aI23
aI19
aI35
aI2
aI55
aI45
aI102
aI111
aI104
aI56
aI56
aI56
aI56
aI56
aI35
aI35
aI95
aI35
aI35
aI2
asg7
I11
sba(i__main__
mlSamplers
p126
(dp127
g3
S'Business Solutions'
p128
sg5
(lp129
I52
aI49
aI69
aI69
aI69
aI69
aI69
aI69
aI69
aI69
aI69
aI69
aI69
aI69
aI69
aI18
aI23
aI19
aI35
aI2
aI55
aI45
aI102
aI111
aI104
aI56
aI56
aI56
aI56
aI56
aI35
aI35
aI95
aI35
aI35
aI2
asg7
I10
sba(i__main__
mlSamplers
p130
(dp131
g3
S'+Google'
p132
sg5
(lp133
I52
aI49
aI69
aI69
aI69
aI69
aI69
aI69
aI69
aI69
aI69
aI69
aI69
aI69
aI69
aI18
aI23
aI19
aI35
aI2
aI55
aI45
aI102
aI111
aI104
aI56
aI56
aI56
aI56
aI56
aI35
aI35
aI95
aI35
aI35
aI2
asg7
I10
sba(i__main__
mlSamplers
p134
(dp135
g3
S'About Google'
p136
sg5
(lp137
I52
aI49
aI69
aI69
aI69
aI69
aI69
aI69
aI69
aI69
aI69
aI69
aI69
aI69
aI69
aI18
aI23
aI19
aI35
aI2
aI55
aI45
aI102
aI111
aI104
aI56
aI56
aI56
aI56
aI56
aI35
aI35
aI95
aI35
aI35
aI2
asg7
I8
sba(i__main__
mlSamplers
p138
(dp139
g3
S' 2017 - '
p140
sg5
(lp141
I52
aI49
aI69
aI69
aI69
aI69
aI69
aI69
aI69
aI69
aI69
aI69
aI69
aI69
aI69
aI18
aI23
aI19
aI35
aI2
aI55
aI45
aI102
aI111
aI104
aI56
aI56
aI56
aI56
aI56
aI35
aI35
aI95
aI79
asg7
I10
sba(i__main__
mlSamplers
p142
(dp143
g3
S'Privacy'
p144
sg5
(lp145
I52
aI49
aI69
aI69
aI69
aI69
aI69
aI69
aI69
aI69
aI69
aI69
aI69
aI69
aI69
aI18
aI23
aI19
aI35
aI2
aI55
aI45
aI102
aI111
aI104
aI56
aI56
aI56
aI56
aI56
aI35
aI35
aI95
aI79
aI2
asg7
I8
sba(i__main__
mlSamplers
p146
(dp147
g3
S' - '
p148
sg5
(lp149
I52
aI49
aI69
aI69
aI69
aI69
aI69
aI69
aI69
aI69
aI69
aI69
aI69
aI69
aI69
aI18
aI23
aI19
aI35
aI2
aI55
aI45
aI102
aI111
aI104
aI56
aI56
aI56
aI56
aI56
aI35
aI35
aI95
aI79
asg7
I0
sba(i__main__
mlSamplers
p150
(dp151
g3
S'Terms'
p152
sg5
(lp153
I52
aI49
aI69
aI69
aI69
aI69
aI69
aI69
aI69
aI69
aI69
aI69
aI69
aI69
aI69
aI18
aI23
aI19
aI35
aI2
aI55
aI45
aI102
aI111
aI104
aI56
aI56
aI56
aI56
aI56
aI35
aI35
aI95
aI79
aI2
asg7
I8
sba(i__main__
mlSamplers
p154
(dp155
g3
S'(function(){window.google.cdo={height:0,width:0};(function(){var a=window.innerWidth,b=window.innerHeight;if(!a||!b){var c=window.document,d="CSS1Compat"==c.compatMode?c.documentElement:c.body;a=d.clientWidth;b=d.clientHeight}a&&b&&(a!=google.cdo.width||b!=google.cdo.height)&&google.log("","","/client_204?&atyp=i&biw="+a+"&bih="+b+"&ei="+google.kEI);}).call(this);})();'
p156
sg5
(lp157
I52
aI49
aI69
aI69
aI69
aI69
aI69
aI69
aI69
aI69
aI69
aI69
aI69
aI69
aI69
aI18
aI23
aI19
aI35
aI2
aI55
aI45
aI102
aI111
aI104
aI56
aI56
aI56
aI56
aI56
aI35
aI90
asg7
I0
sba(i__main__
mlSamplers
p158
(dp159
g3
S'(function(){function c(b){window.setTimeout(function(){var a=document.createElement("script");a.src=b;google.timers&&google.timers.load.t&&google.tick("load",{gen204:"xjsls",clearcut:31});document.getElementById("xjsd").appendChild(a)},0)}google.dljp=function(b,a){google.xjsu=b;c(a)};google.dlj=c;}).call(this);(function(){window.google.xjsrm=[];})();if(google.y)google.y.first=[];if(!google.xjs){window._=window._||{};window._DumpException=window._._DumpException=function(e){throw e};google.dljp(\'/xjs/_/js/k\\x3dxjs.hp.en_US.6NUyegkYNUw.O/m\\x3dsb_he,d/am\\x3dABg/rt\\x3dj/d\\x3d1/t\\x3dzcms/rs\\x3dACT90oFf4GRcQ7rmf1sgQe58NIYHZroN6w\',\'/xjs/_/js/k\\x3dxjs.hp.en_US.6NUyegkYNUw.O/m\\x3dsb_he,d/am\\x3dABg/rt\\x3dj/d\\x3d1/t\\x3dzcms/rs\\x3dACT90oFf4GRcQ7rmf1sgQe58NIYHZroN6w\');google.xjs=1;}google.pmc={"sb_he":{"agen":false,"cgen":false,"client":"heirloom-hp","dh":true,"dhqt":true,"ds":"","fl":true,"host":"google.com","isbh":28,"jam":0,"jsonp":true,"msgs":{"cibl":"Clear Search","dym":"Did you mean:","lcky":"I\\u0026#39;m Feeling Lucky","lml":"Learn more","oskt":"Input tools","psrc":"This search was removed from your \\u003Ca href=\\"/history\\"\\u003EWeb History\\u003C/a\\u003E","psrl":"Remove","sbit":"Search by image","srch":"Google Search"},"nds":true,"ovr":{},"pq":"","refpd":true,"rfs":[],"sbpl":24,"sbpr":24,"scd":10,"sce":5,"stok":"rhpGTPyj_hKFFbgOZxau94YgacY"},"d":{},"aWiv7g":{},"YFCs/g":{}};google.y.first.push(function(){if(google.med){google.med(\'init\');google.initHistory();google.med(\'history\');}});google.x(null,function(){});if(google.j&&google.j.en&&google.j.xi){window.setTimeout(google.j.xi,0);}\n'
p160
sg5
(lp161
I52
aI49
aI69
aI69
aI69
aI69
aI69
aI69
aI69
aI69
aI69
aI69
aI69
aI69
aI69
aI18
aI23
aI19
aI35
aI2
aI55
aI45
aI102
aI111
aI104
aI56
aI56
aI56
aI56
aI56
aI35
aI35
aI90
asg7
I0
sba(i__main__
mlSamplers
p162
(dp163
g3
S'\n\n'
p164
sg5
(lp165
sg7
I0
sba(i__main__
mlSamplers
p166
(dp167
g3
S'\n'
p168
sg5
(lp169
sg7
I0
sba(i__main__
mlSamplers
p170
(dp171
g3
S'\n\n'
p172
sg5
(lp173
I52
asg7
I0
sba(i__main__
mlSamplers
p174
(dp175
g3
g168
sg5
(lp176
I52
aI49
asg7
I0
sba(i__main__
mlSamplers
p177
(dp178
g3
g168
sg5
(lp179
I52
aI49
aI69
asg7
I0
sba(i__main__
mlSamplers
p180
(dp181
g3
S'Example of a simple HTML page'
p182
sg5
(lp183
I52
aI49
aI69
aI110
asg7
I1
sba(i__main__
mlSamplers
p184
(dp185
g3
g168
sg5
(lp186
I52
aI49
aI69
asg7
I0
sba(i__main__
mlSamplers
p187
(dp188
g3
g168
sg5
(lp189
I52
aI49
aI69
aI69
asg7
I0
sba(i__main__
mlSamplers
p190
(dp191
g3
S'\n<!--\nif (navigator.appName !="Netscape")\n{   document.write("<link rel=\'stylesheet\' href=\'default.css\'>");}\n//-->\n'
p192
sg5
(lp193
I52
aI49
aI69
aI69
aI63
aI90
asg7
I0
sba(i__main__
mlSamplers
p194
(dp195
g3
g168
sg5
(lp196
I52
aI49
aI69
aI69
aI63
asg7
I0
sba(i__main__
mlSamplers
p197
(dp198
g3
S'\n<!--\nimg_whs1 { border:none; width:301px; height:295px; float:none; }\np.whs2 { margin-bottom:5pt; }\np.whs3 { margin-bottom:9.5pt; }\n-->\n'
p199
sg5
(lp200
I52
aI49
aI69
aI69
aI63
aI98
asg7
I0
sba(i__main__
mlSamplers
p201
(dp202
g3
S'\n<!--\nfunction reDo() {\n  if (innerWidth != origWidth || innerHeight != origHeight)\n     location.reload();\n}\nif ((parseInt(navigator.appVersion) == 4) && (navigator.appName == "Netscape")) {\n\torigWidth = innerWidth;\n\torigHeight = innerHeight;\n\tonresize = reDo;\n}\nonerror = null; \n//-->\n'
p203
sg5
(lp204
I52
aI49
aI69
aI69
aI63
aI90
asg7
I0
sba(i__main__
mlSamplers
p205
(dp206
g3
g168
sg5
(lp207
I52
aI49
aI69
aI69
aI63
asg7
I0
sba(i__main__
mlSamplers
p208
(dp209
g3
S'\n<!--\ndiv.WebHelpPopupMenu { position:absolute; left:0px; top:0px; z-index:4; visibility:hidden; }\np.WebHelpNavBar { text-align:left; }\n-->\n'
p210
sg5
(lp211
I52
aI49
aI69
aI69
aI63
aI98
asg7
I0
sba(i__main__
mlSamplers
p212
(dp213
g3
g168
sg5
(lp214
I52
aI49
aI69
aI69
aI63
asg7
I0
sba(i__main__
mlSamplers
p215
(dp216
g3
g168
sg5
(lp217
I52
aI49
aI69
aI69
aI63
asg7
I0
sba(i__main__
mlSamplers
p218
(dp219
g3
g168
sg5
(lp220
I52
aI49
aI69
aI69
aI63
asg7
I0
sba(i__main__
mlSamplers
p221
(dp222
g3
g168
sg5
(lp223
I52
aI49
aI69
aI69
aI63
asg7
I0
sba(i__main__
mlSamplers
p224
(dp225
g3
g168
sg5
(lp226
I52
aI49
aI69
aI69
aI63
asg7
I0
sba(i__main__
mlSamplers
p227
(dp228
g3
S'\n<!--\nif (window.gbWhTopic)\n{\n\tif (window.setRelStartPage)\n\t{\n\taddTocInfo("Building your website\\nCreating an EasySiteWizard 6 website\\nExample of a simple HTML page");\naddButton("show",BTN_TEXT,"Show","","","","",0,0,"whd_show0.gif","whd_show2.gif","whd_show1.gif");\naddButton("hide",BTN_TEXT,"Hide","","","","",0,0,"whd_hide0.gif","whd_hide2.gif","whd_hide1.gif");\naddButton("synctoc",BTN_TEXT,"Show Topic in Contents","","","","",0,0,"whd_sync0.gif","whd_sync2.gif","whd_sync1.gif");\n\n\t}\n\n\n\tif (window.setRelStartPage)\n\t{\n\tsetRelStartPage("websiteos.html");\n\n\t\tautoSync(0);\n\t\tsendSyncInfo();\n\t\tsendAveInfoOut();\n\t}\n\n}\nelse\n\tif (window.gbIE4)\n\t\tdocument.location.reload();\n//-->\n'
p229
sg5
(lp230
I52
aI49
aI69
aI69
aI63
aI90
asg7
I0
sba(i__main__
mlSamplers
p231
(dp232
g3
g168
sg5
(lp233
I52
aI49
aI69
aI69
aI63
asg7
I0
sba(i__main__
mlSamplers
p234
(dp235
g3
g168
sg5
(lp236
I52
aI49
aI69
aI69
asg7
I0
sba(i__main__
mlSamplers
p237
(dp238
g3
S'\n<!--\nif (window.writeIntopicBar)\n\twriteIntopicBar(1);\n//-->\n'
p239
sg5
(lp240
I52
aI49
aI69
aI69
aI18
aI90
asg7
I0
sba(i__main__
mlSamplers
p241
(dp242
g3
g168
sg5
(lp243
I52
aI49
aI69
aI69
aI18
asg7
I0
sba(i__main__
mlSamplers
p244
(dp245
g3
S'Example of a simple HTML page'
p246
sg5
(lp247
I52
aI49
aI69
aI69
aI18
aI48
asg7
I1
sba(i__main__
mlSamplers
p248
(dp249
g3
S'\n\n'
p250
sg5
(lp251
I52
aI49
aI69
aI69
aI18
asg7
I0
sba(i__main__
mlSamplers
p252
(dp253
g3
S'Hypertext Markup Language (HTML) is the most common language used to \n create documents on the World Wide Web. HTML uses hundreds of different \n tags to define a layout for web pages. Most tags require an opening '
p254
sg5
(lp255
I52
aI49
aI69
aI69
aI18
aI79
asg7
I3
sba(i__main__
mlSamplers
p256
(dp257
g3
S'tag'
p258
sg5
(lp259
I52
aI49
aI69
aI69
aI18
aI79
asg7
I3
sba(i__main__
mlSamplers
p260
(dp261
g3
S' \n and a closing '
p262
sg5
(lp263
I52
aI49
aI69
aI69
aI18
aI79
asg7
I3
sba(i__main__
mlSamplers
p264
(dp265
g3
S'/tag'
p266
sg5
(lp267
I52
aI49
aI69
aI69
aI18
aI79
asg7
I3
sba(i__main__
mlSamplers
p268
(dp269
g3
S'.'
p270
sg5
(lp271
I52
aI49
aI69
aI69
aI18
aI79
asg7
I3
sba(i__main__
mlSamplers
p272
(dp273
g3
S'\n\n'
p274
sg5
(lp275
I52
aI49
aI69
aI69
aI18
asg7
I0
sba(i__main__
mlSamplers
p276
(dp277
g3
S'Example:'
p278
sg5
(lp279
I52
aI49
aI69
aI69
aI18
aI79
aI95
aI11
asg7
I3
sba(i__main__
mlSamplers
p280
(dp281
g3
S' '
p282
sg5
(lp283
I52
aI49
aI69
aI69
aI18
aI79
asg7
I0
sba(i__main__
mlSamplers
p284
(dp285
g3
S'b'
p286
sg5
(lp287
I52
aI49
aI69
aI69
aI18
aI79
asg7
I3
sba(i__main__
mlSamplers
p288
(dp289
g3
S'On \n a webpage, this sentence would be in bold print.'
p290
sg5
(lp291
I52
aI49
aI69
aI69
aI18
aI79
asg7
I3
sba(i__main__
mlSamplers
p292
(dp293
g3
S'/b'
p294
sg5
(lp295
I52
aI49
aI69
aI69
aI18
aI79
asg7
I3
sba(i__main__
mlSamplers
p296
(dp297
g3
g282
sg5
(lp298
I52
aI49
aI69
aI69
aI18
aI79
asg7
I0
sba(i__main__
mlSamplers
p299
(dp300
g3
S'\n\n'
p301
sg5
(lp302
I52
aI49
aI69
aI69
aI18
asg7
I0
sba(i__main__
mlSamplers
p303
(dp304
g3
S'Below is an example of a very simple page: '
p305
sg5
(lp306
I52
aI49
aI69
aI69
aI18
aI79
asg7
I3
sba(i__main__
mlSamplers
p307
(dp308
g3
S'\n\n'
p309
sg5
(lp310
I52
aI49
aI69
aI69
aI18
asg7
I0
sba(i__main__
mlSamplers
p311
(dp312
g3
S'\n\n'
p313
sg5
(lp314
I52
aI49
aI69
aI69
aI18
aI79
asg7
I0
sba(i__main__
mlSamplers
p315
(dp316
g3
S'This \n is the code used to make the page: '
p317
sg5
(lp318
I52
aI49
aI69
aI69
aI18
aI79
aI79
asg7
I3
sba(i__main__
mlSamplers
p319
(dp320
g3
S'\n\n'
p321
sg5
(lp322
I52
aI49
aI69
aI69
aI18
aI79
asg7
I0
sba(i__main__
mlSamplers
p323
(dp324
g3
S'HTML'
p325
sg5
(lp326
I52
aI49
aI69
aI69
aI18
aI79
aI79
asg7
I3
sba(i__main__
mlSamplers
p327
(dp328
g3
g282
sg5
(lp329
I52
aI49
aI69
aI69
aI18
aI79
aI79
asg7
I0
sba(i__main__
mlSamplers
p330
(dp331
g3
S'\n\n'
p332
sg5
(lp333
I52
aI49
aI69
aI69
aI18
aI79
asg7
I0
sba(i__main__
mlSamplers
p334
(dp335
g3
S'HEAD'
p336
sg5
(lp337
I52
aI49
aI69
aI69
aI18
aI79
aI79
asg7
I3
sba(i__main__
mlSamplers
p338
(dp339
g3
g282
sg5
(lp340
I52
aI49
aI69
aI69
aI18
aI79
aI79
asg7
I0
sba(i__main__
mlSamplers
p341
(dp342
g3
S'\n\n'
p343
sg5
(lp344
I52
aI49
aI69
aI69
aI18
aI79
asg7
I0
sba(i__main__
mlSamplers
p345
(dp346
g3
S'TITLE'
p347
sg5
(lp348
I52
aI49
aI69
aI69
aI18
aI79
aI79
asg7
I3
sba(i__main__
mlSamplers
p349
(dp350
g3
S'Your Title Here'
p351
sg5
(lp352
I52
aI49
aI69
aI69
aI18
aI79
aI79
asg7
I3
sba(i__main__
mlSamplers
p353
(dp354
g3
S'/TITLE'
p355
sg5
(lp356
I52
aI49
aI69
aI69
aI18
aI79
aI79
asg7
I3
sba(i__main__
mlSamplers
p357
(dp358
g3
S' \n '
p359
sg5
(lp360
I52
aI49
aI69
aI69
aI18
aI79
aI79
asg7
I0
sba(i__main__
mlSamplers
p361
(dp362
g3
S'\n\n'
p363
sg5
(lp364
I52
aI49
aI69
aI69
aI18
aI79
asg7
I0
sba(i__main__
mlSamplers
p365
(dp366
g3
S'/HEAD'
p367
sg5
(lp368
I52
aI49
aI69
aI69
aI18
aI79
aI79
asg7
I3
sba(i__main__
mlSamplers
p369
(dp370
g3
g282
sg5
(lp371
I52
aI49
aI69
aI69
aI18
aI79
aI79
asg7
I0
sba(i__main__
mlSamplers
p372
(dp373
g3
S'\n\n'
p374
sg5
(lp375
I52
aI49
aI69
aI69
aI18
aI79
asg7
I0
sba(i__main__
mlSamplers
p376
(dp377
g3
S'BODY BGCOLOR='
p378
sg5
(lp379
I52
aI49
aI69
aI69
aI18
aI79
aI79
asg7
I3
sba(i__main__
mlSamplers
p380
(dp381
g3
S'FFFFFF'
p382
sg5
(lp383
I52
aI49
aI69
aI69
aI18
aI79
aI79
asg7
I3
sba(i__main__
mlSamplers
p384
(dp385
g3
S' \n '
p386
sg5
(lp387
I52
aI49
aI69
aI69
aI18
aI79
aI79
asg7
I0
sba(i__main__
mlSamplers
p388
(dp389
g3
S'\n\n'
p390
sg5
(lp391
I52
aI49
aI69
aI69
aI18
aI79
asg7
I0
sba(i__main__
mlSamplers
p392
(dp393
g3
S'CENTER'
p394
sg5
(lp395
I52
aI49
aI69
aI69
aI18
aI79
aI79
asg7
I3
sba(i__main__
mlSamplers
p396
(dp397
g3
S'IMG SRC='
p398
sg5
(lp399
I52
aI49
aI69
aI69
aI18
aI79
aI79
asg7
I3
sba(i__main__
mlSamplers
p400
(dp401
g3
S'clouds.jpg'
p402
sg5
(lp403
I52
aI49
aI69
aI69
aI18
aI79
aI79
asg7
I3
sba(i__main__
mlSamplers
p404
(dp405
g3
S' \n ALIGN='
p406
sg5
(lp407
I52
aI49
aI69
aI69
aI18
aI79
aI79
asg7
I3
sba(i__main__
mlSamplers
p408
(dp409
g3
S'BOTTOM'
p410
sg5
(lp411
I52
aI49
aI69
aI69
aI18
aI79
aI79
asg7
I3
sba(i__main__
mlSamplers
p412
(dp413
g3
g282
sg5
(lp414
I52
aI49
aI69
aI69
aI18
aI79
aI79
asg7
I0
sba(i__main__
mlSamplers
p415
(dp416
g3
S'/CENTER'
p417
sg5
(lp418
I52
aI49
aI69
aI69
aI18
aI79
aI79
asg7
I3
sba(i__main__
mlSamplers
p419
(dp420
g3
g282
sg5
(lp421
I52
aI49
aI69
aI69
aI18
aI79
aI79
asg7
I0
sba(i__main__
mlSamplers
p422
(dp423
g3
S'\n\n'
p424
sg5
(lp425
I52
aI49
aI69
aI69
aI18
aI79
asg7
I0
sba(i__main__
mlSamplers
p426
(dp427
g3
S'HR'
p428
sg5
(lp429
I52
aI49
aI69
aI69
aI18
aI79
aI79
asg7
I3
sba(i__main__
mlSamplers
p430
(dp431
g3
g282
sg5
(lp432
I52
aI49
aI69
aI69
aI18
aI79
aI79
asg7
I0
sba(i__main__
mlSamplers
p433
(dp434
g3
S'\n\n'
p435
sg5
(lp436
I52
aI49
aI69
aI69
aI18
aI79
asg7
I0
sba(i__main__
mlSamplers
p437
(dp438
g3
S'a href='
p439
sg5
(lp440
I52
aI49
aI69
aI69
aI18
aI79
aI79
asg7
I3
sba(i__main__
mlSamplers
p441
(dp442
g3
S'http://somegreatsite.com'
p443
sg5
(lp444
I52
aI49
aI69
aI69
aI18
aI79
aI79
asg7
I3
sba(i__main__
mlSamplers
p445
(dp446
g3
S'Link \n Name'
p447
sg5
(lp448
I52
aI49
aI69
aI69
aI18
aI79
aI79
asg7
I3
sba(i__main__
mlSamplers
p449
(dp450
g3
S'/a'
p451
sg5
(lp452
I52
aI49
aI69
aI69
aI18
aI79
aI79
asg7
I3
sba(i__main__
mlSamplers
p453
(dp454
g3
g282
sg5
(lp455
I52
aI49
aI69
aI69
aI18
aI79
aI79
asg7
I0
sba(i__main__
mlSamplers
p456
(dp457
g3
S'\n\n'
p458
sg5
(lp459
I52
aI49
aI69
aI69
aI18
aI79
asg7
I0
sba(i__main__
mlSamplers
p460
(dp461
g3
S'is a link to another nifty site '
p462
sg5
(lp463
I52
aI49
aI69
aI69
aI18
aI79
aI79
asg7
I3
sba(i__main__
mlSamplers
p464
(dp465
g3
S'\n\n'
p466
sg5
(lp467
I52
aI49
aI69
aI69
aI18
aI79
asg7
I0
sba(i__main__
mlSamplers
p468
(dp469
g3
S'H1'
p470
sg5
(lp471
I52
aI49
aI69
aI69
aI18
aI79
aI79
asg7
I0
sba(i__main__
mlSamplers
p472
(dp473
g3
S'This is a Header'
p474
sg5
(lp475
I52
aI49
aI69
aI69
aI18
aI79
aI79
asg7
I3
sba(i__main__
mlSamplers
p476
(dp477
g3
S'/H1'
p478
sg5
(lp479
I52
aI49
aI69
aI69
aI18
aI79
aI79
asg7
I3
sba(i__main__
mlSamplers
p480
(dp481
g3
g282
sg5
(lp482
I52
aI49
aI69
aI69
aI18
aI79
aI79
asg7
I0
sba(i__main__
mlSamplers
p483
(dp484
g3
S'\n\n'
p485
sg5
(lp486
I52
aI49
aI69
aI69
aI18
aI79
asg7
I0
sba(i__main__
mlSamplers
p487
(dp488
g3
S'H2'
p489
sg5
(lp490
I52
aI49
aI69
aI69
aI18
aI79
aI79
asg7
I3
sba(i__main__
mlSamplers
p491
(dp492
g3
S'This is a Medium Header'
p493
sg5
(lp494
I52
aI49
aI69
aI69
aI18
aI79
aI79
asg7
I3
sba(i__main__
mlSamplers
p495
(dp496
g3
S'/H2'
p497
sg5
(lp498
I52
aI49
aI69
aI69
aI18
aI79
aI79
asg7
I3
sba(i__main__
mlSamplers
p499
(dp500
g3
S' \n '
p501
sg5
(lp502
I52
aI49
aI69
aI69
aI18
aI79
aI79
asg7
I0
sba(i__main__
mlSamplers
p503
(dp504
g3
S'\n\n'
p505
sg5
(lp506
I52
aI49
aI69
aI69
aI18
aI79
asg7
I0
sba(i__main__
mlSamplers
p507
(dp508
g3
S'Send me mail at '
p509
sg5
(lp510
I52
aI49
aI69
aI69
aI18
aI79
aI79
asg7
I3
sba(i__main__
mlSamplers
p511
(dp512
g3
S'a href='
p513
sg5
(lp514
I52
aI49
aI69
aI69
aI18
aI79
aI79
asg7
I0
sba(i__main__
mlSamplers
p515
(dp516
g3
S'mailto:support@yourcompany.com'
p517
sg5
(lp518
I52
aI49
aI69
aI69
aI18
aI79
aI79
asg7
I3
sba(i__main__
mlSamplers
p519
(dp520
g3
S'\n\n'
p521
sg5
(lp522
I52
aI49
aI69
aI69
aI18
aI79
asg7
I0
sba(i__main__
mlSamplers
p523
(dp524
g3
S'support@yourcompany.com'
p525
sg5
(lp526
I52
aI49
aI69
aI69
aI18
aI79
aI79
asg7
I3
sba(i__main__
mlSamplers
p527
(dp528
g3
S'/a'
p529
sg5
(lp530
I52
aI49
aI69
aI69
aI18
aI79
aI79
asg7
I0
sba(i__main__
mlSamplers
p531
(dp532
g3
S'. '
p533
sg5
(lp534
I52
aI49
aI69
aI69
aI18
aI79
aI79
asg7
I3
sba(i__main__
mlSamplers
p535
(dp536
g3
S'\n\n'
p537
sg5
(lp538
I52
aI49
aI69
aI69
aI18
aI79
asg7
I0
sba(i__main__
mlSamplers
p539
(dp540
g3
S'P'
p541
sg5
(lp542
I52
aI49
aI69
aI69
aI18
aI79
aI79
asg7
I3
sba(i__main__
mlSamplers
p543
(dp544
g3
S' This is a new paragraph! '
p545
sg5
(lp546
I52
aI49
aI69
aI69
aI18
aI79
aI79
asg7
I3
sba(i__main__
mlSamplers
p547
(dp548
g3
S'\n\n'
p549
sg5
(lp550
I52
aI49
aI69
aI69
aI18
aI79
asg7
I0
sba(i__main__
mlSamplers
p551
(dp552
g3
g541
sg5
(lp553
I52
aI49
aI69
aI69
aI18
aI79
aI79
asg7
I3
sba(i__main__
mlSamplers
p554
(dp555
g3
g282
sg5
(lp556
I52
aI49
aI69
aI69
aI18
aI79
aI79
asg7
I0
sba(i__main__
mlSamplers
p557
(dp558
g3
S'B'
p559
sg5
(lp560
I52
aI49
aI69
aI69
aI18
aI79
aI79
asg7
I3
sba(i__main__
mlSamplers
p561
(dp562
g3
S'This is a new paragraph!'
p563
sg5
(lp564
I52
aI49
aI69
aI69
aI18
aI79
aI79
asg7
I3
sba(i__main__
mlSamplers
p565
(dp566
g3
S'/B'
p567
sg5
(lp568
I52
aI49
aI69
aI69
aI18
aI79
aI79
asg7
I3
sba(i__main__
mlSamplers
p569
(dp570
g3
S' \n '
p571
sg5
(lp572
I52
aI49
aI69
aI69
aI18
aI79
aI79
asg7
I0
sba(i__main__
mlSamplers
p573
(dp574
g3
S'\n\n'
p575
sg5
(lp576
I52
aI49
aI69
aI69
aI18
aI79
asg7
I0
sba(i__main__
mlSamplers
p577
(dp578
g3
S'BR'
p579
sg5
(lp580
I52
aI49
aI69
aI69
aI18
aI79
aI79
asg7
I3
sba(i__main__
mlSamplers
p581
(dp582
g3
g282
sg5
(lp583
I52
aI49
aI69
aI69
aI18
aI79
aI79
asg7
I0
sba(i__main__
mlSamplers
p584
(dp585
g3
g559
sg5
(lp586
I52
aI49
aI69
aI69
aI18
aI79
aI79
asg7
I3
sba(i__main__
mlSamplers
p587
(dp588
g3
S'I'
p589
sg5
(lp590
I52
aI49
aI69
aI69
aI18
aI79
aI79
asg7
I3
sba(i__main__
mlSamplers
p591
(dp592
g3
S'This is a new \n sentence without a paragraph break, in bold italics.'
p593
sg5
(lp594
I52
aI49
aI69
aI69
aI18
aI79
aI79
asg7
I3
sba(i__main__
mlSamplers
p595
(dp596
g3
S'/I'
p597
sg5
(lp598
I52
aI49
aI69
aI69
aI18
aI79
aI79
asg7
I3
sba(i__main__
mlSamplers
p599
(dp600
g3
S'/B'
p601
sg5
(lp602
I52
aI49
aI69
aI69
aI18
aI79
aI79
asg7
I3
sba(i__main__
mlSamplers
p603
(dp604
g3
S' \n '
p605
sg5
(lp606
I52
aI49
aI69
aI69
aI18
aI79
aI79
asg7
I0
sba(i__main__
mlSamplers
p607
(dp608
g3
S'\n\n'
p609
sg5
(lp610
I52
aI49
aI69
aI69
aI18
aI79
asg7
I0
sba(i__main__
mlSamplers
p611
(dp612
g3
S'HR'
p613
sg5
(lp614
I52
aI49
aI69
aI69
aI18
aI79
aI79
asg7
I3
sba(i__main__
mlSamplers
p615
(dp616
g3
g282
sg5
(lp617
I52
aI49
aI69
aI69
aI18
aI79
aI79
asg7
I0
sba(i__main__
mlSamplers
p618
(dp619
g3
S'\n\n'
p620
sg5
(lp621
I52
aI49
aI69
aI69
aI18
aI79
asg7
I0
sba(i__main__
mlSamplers
p622
(dp623
g3
S'/BODY'
p624
sg5
(lp625
I52
aI49
aI69
aI69
aI18
aI79
aI79
asg7
I3
sba(i__main__
mlSamplers
p626
(dp627
g3
g282
sg5
(lp628
I52
aI49
aI69
aI69
aI18
aI79
aI79
asg7
I0
sba(i__main__
mlSamplers
p629
(dp630
g3
S'\n\n'
p631
sg5
(lp632
I52
aI49
aI69
aI69
aI18
aI79
asg7
I0
sba(i__main__
mlSamplers
p633
(dp634
g3
S'/HTML'
p635
sg5
(lp636
I52
aI49
aI69
aI69
aI18
aI79
aI79
asg7
I3
sba(i__main__
mlSamplers
p637
(dp638
g3
g282
sg5
(lp639
I52
aI49
aI69
aI69
aI18
aI79
aI79
asg7
I0
sba(i__main__
mlSamplers
p640
(dp641
g3
S'\n\n'
p642
sg5
(lp643
I52
aI49
aI69
aI69
aI18
aI79
asg7
I0
sba(i__main__
mlSamplers
p644
(dp645
g3
S'\n\n'
p646
sg5
(lp647
I52
aI49
aI69
aI69
aI18
aI79
asg7
I0
sba(i__main__
mlSamplers
p648
(dp649
g3
S'\n\n'
p650
sg5
(lp651
I52
aI49
aI69
aI69
aI18
aI79
asg7
I0
sba(i__main__
mlSamplers
p652
(dp653
g3
S'\n\n'
p654
sg5
(lp655
I52
aI49
aI69
aI69
aI18
aI79
asg7
I0
sba(i__main__
mlSamplers
p656
(dp657
g3
S'\n<!--\nif (window.writeIntopicBar)\n\twriteIntopicBar(0);\n//-->\n'
p658
sg5
(lp659
I52
aI49
aI69
aI69
aI18
aI79
aI90
asg7
I0
sba(i__main__
mlSamplers
p660
(dp661
g3
g168
sg5
(lp662
I52
aI49
aI69
aI69
aI18
aI79
asg7
I0
sba(i__main__
mlSamplers
p663
(dp664
g3
g168
sg5
(lp665
I52
aI49
aI69
aI69
aI18
aI79
asg7
I0
sba(i__main__
mlSamplers
p666
(dp667
g3
g168
sg5
(lp668
I52
aI49
aI69
aI69
aI18
aI79
asg7
I0
sba(i__main__
mlSamplers
p669
(dp670
g3
S"<!--\nwm_custnum='a57bcd0d5bb4bdac';\nwm_page_name='example_of_a_simple_html_page.htm';\nwm_group_name='/services/webpages/h/e/help.websiteos.com/public/websiteos';\nwm_campaign_key='campaign_id';\nwm_track_alt='';\nwiredminds.count();\n// -->\n"
p671
sg5
(lp672
I52
aI49
aI69
aI69
aI18
aI79
aI90
asg7
I0
sba(i__main__
mlSamplers
p673
(dp674
g3
g168
sg5
(lp675
I52
aI49
aI69
aI69
aI18
aI79
asg7
I0
sba(i__main__
mlSamplers
p676
(dp677
g3
g168
sg5
(lp678
I52
aI49
aI69
aI69
aI18
aI79
asg7
I0
sba(i__main__
mlSamplers
p679
(dp680
g3
g168
sg5
(lp681
I52
aI49
aI69
aI69
aI18
asg7
I0
sba(i__main__
mlSamplers
p682
(dp683
g3
g168
sg5
(lp684
I52
aI49
aI69
aI69
asg7
I0
sba.