(dp0
S'code'
p1
I25
sS'kbd'
p2
I58
sS'tbody'
p3
I103
sS'font'
p4
I43
sS'noscript'
p5
I73
sS'style'
p6
I98
sS'img'
p7
I55
sS'title'
p8
I110
sS'menu'
p9
I67
sS'tt'
p10
I113
sS'tr'
p11
I111
sS'param'
p12
I80
sS'li'
p13
I62
sS'source'
p14
I94
sS'tfoot'
p15
I106
sS'th'
p16
I107
sS'input'
p17
I56
sS'td'
p18
I104
sS'main'
p19
I64
sS'dl'
p20
I36
sS'blockquote'
p21
I17
sS'fieldset'
p22
I40
sS'big'
p23
I16
sS'dd'
p24
I29
sS'meter'
p25
I70
sS'optgroup'
p26
I76
sS'dt'
p27
I37
sS'wbr'
p28
I118
sS'button'
p29
I20
sS'summary'
p30
I100
sS'p'
p31
I79
sS'menuitem'
p32
I68
sS'output'
p33
I78
sS'div'
p34
I35
sS'dir'
p35
I34
sS'em'
p36
I38
sS'picture'
p37
I81
sS'datalist'
p38
I28
sS'frame'
p39
I46
sS'meta'
p40
I69
sS'video'
p41
I117
sS'!DOCTYPE'
p42
I1
sS'rt'
p43
I86
sS'canvas'
p44
I21
sS'rp'
p45
I85
sS'sub'
p46
I99
sS'bdo'
p47
I15
sS'bdi'
p48
I14
sS'label'
p49
I60
sS'acronym'
p50
I4
sS'sup'
p51
I101
sS'progress'
p52
I83
sS'body'
p53
I18
sS'basefont'
p54
I13
sS'small'
p55
I93
sS'base'
p56
I12
sS'br'
p57
I19
sS'address'
p58
I5
sS'article'
p59
I8
sS'strong'
p60
I97
sS'legend'
p61
I61
sS'ol'
p62
I75
sS'script'
p63
I90
sS'caption'
p64
I22
sS's'
p65
I88
sS'dialog'
p66
I33
sS'col'
p67
I26
sS'h1'
p68
I48
sS'header'
p69
I50
sS'!--...--'
p70
I0
sS'table'
p71
I102
sS'select'
p72
I92
sS'noframes'
p73
I72
sS'span'
p74
I95
sS'area'
p75
I7
sS'mark'
p76
I66
sS'dfn'
p77
I32
sS'strike'
p78
I96
sS'cite'
p79
I24
sS'thead'
p80
I108
sS'head'
p81
I49
sS'option'
p82
I77
sS'form'
p83
I45
sS'hr'
p84
I51
sS'var'
p85
I116
sS'link'
p86
I63
sS'ruby'
p87
I87
sS'b'
p88
I11
sS'colgroup'
p89
I27
sS'keygen'
p90
I59
sS'ul'
p91
I115
sS'applet'
p92
I6
sS'del'
p93
I30
sS'iframe'
p94
I54
sS'embed'
p95
I39
sS'pre'
p96
I82
sS'frameset'
p97
I47
sS'figure'
p98
I42
sS'ins'
p99
I57
sS'aside'
p100
I9
sS'html'
p101
I52
sS'nav'
p102
I71
sS'details'
p103
I31
sS'samp'
p104
I89
sS'map'
p105
I65
sS'track'
p106
I112
sS'object'
p107
I74
sS'figcaption'
p108
I41
sS'a'
p109
I2
sS'center'
p110
I23
sS'textarea'
p111
I105
sS'footer'
p112
I44
sS'i'
p113
I53
sS'q'
p114
I84
sS'u'
p115
I114
sS'time'
p116
I109
sS'audio'
p117
I10
sS'section'
p118
I91
sS'abbr'
p119
I3
s.